target datalayout = "e-m:e-p270:32:32-p271:32:32-p272:64:64-i64:64-i128:128-f80:128-n8:16:32:64-S128"
target triple = "x86_64-pc-linux-gnu"

%struct.JNINativeInterface_ = type { ptr, ptr, ptr, ptr, ptr, ptr, ptr, ptr, ptr, ptr, ptr, ptr, ptr, ptr, ptr, ptr, ptr, ptr, ptr, ptr, ptr, ptr, ptr, ptr, ptr, ptr, ptr, ptr, ptr, ptr, ptr, ptr, ptr, ptr, ptr, ptr, ptr, ptr, ptr, ptr, ptr, ptr, ptr, ptr, ptr, ptr, ptr, ptr, ptr, ptr, ptr, ptr, ptr, ptr, ptr, ptr, ptr, ptr, ptr, ptr, ptr, ptr, ptr, ptr, ptr, ptr, ptr, ptr, ptr, ptr, ptr, ptr, ptr, ptr, ptr, ptr, ptr, ptr, ptr, ptr, ptr, ptr, ptr, ptr, ptr, ptr, ptr, ptr, ptr, ptr, ptr, ptr, ptr, ptr, ptr, ptr, ptr, ptr, ptr, ptr, ptr, ptr, ptr, ptr, ptr, ptr, ptr, ptr, ptr, ptr, ptr, ptr, ptr, ptr, ptr, ptr, ptr, ptr, ptr, ptr, ptr, ptr, ptr, ptr, ptr, ptr, ptr, ptr, ptr, ptr, ptr, ptr, ptr, ptr, ptr, ptr, ptr, ptr, ptr, ptr, ptr, ptr, ptr, ptr, ptr, ptr, ptr, ptr, ptr, ptr, ptr, ptr, ptr, ptr, ptr, ptr, ptr, ptr, ptr, ptr, ptr, ptr, ptr, ptr, ptr, ptr, ptr, ptr, ptr, ptr, ptr, ptr, ptr, ptr, ptr, ptr, ptr, ptr, ptr, ptr, ptr, ptr, ptr, ptr, ptr, ptr, ptr, ptr, ptr, ptr, ptr, ptr, ptr, ptr, ptr, ptr, ptr, ptr, ptr, ptr, ptr, ptr, ptr, ptr, ptr, ptr, ptr, ptr, ptr, ptr, ptr, ptr, ptr, ptr, ptr, ptr, ptr, ptr, ptr, ptr, ptr, ptr, ptr, ptr, ptr, ptr, ptr, ptr, ptr, ptr, ptr, ptr, ptr, ptr, ptr }
%struct.anon = type { ptr, ptr, i32, i32, i32, i32, ptr, i64, i64, i64, i32, ptr, i32, i32, i32, i32, i32, ptr, i32, i32, ptr, ptr, i32, i64, i64, ptr, ptr, ptr, ptr, i32, ptr, ptr, ptr, i32, i32, ptr, i64, i64, i32, i32, ptr, ptr, i32, ptr }
%struct.Screen = type { ptr, ptr, i64, i32, i32, i32, i32, i32, ptr, i32, ptr, ptr, i64, i64, i64, i32, i32, i32, i32, i64 }
%struct.XRRScreenSize = type { i32, i32, i32, i32 }

@tkClass = hidden global ptr null, align 8
@awtLockMID = hidden global ptr null, align 8
@awtUnlockMID = hidden global ptr null, align 8
@awt_display = hidden global ptr null, align 8
@.str.26 = private unnamed_addr constant [7 x i8] c"<init>\00", align 1
@.str.27 = private unnamed_addr constant [8 x i8] c"(IIII)V\00", align 1
@awt_XRRGetScreenInfo = internal global ptr null, align 8
@awt_XRRConfigCurrentConfiguration = internal global ptr null, align 8
@awt_XRRConfigSizes = internal global ptr null, align 8
@awt_XRRConfigCurrentRate = internal global ptr null, align 8
@awt_XRRFreeScreenConfigInfo = internal global ptr null, align 8
@.str.74 = private unnamed_addr constant [21 x i8] c"java/awt/DisplayMode\00", align 1
@.str.75 = private unnamed_addr constant [33 x i8] c"Could not get display mode class\00", align 1
@.str.76 = private unnamed_addr constant [39 x i8] c"Could not get display mode constructor\00", align 1

; Function Attrs: nounwind uwtable
define internal ptr @X11GD_CreateDisplayMode(ptr noundef %0, i32 noundef %1, i32 noundef %2, i32 noundef %3, i32 noundef %4) #0 {
  %6 = alloca ptr, align 8
  %7 = alloca ptr, align 8
  %8 = alloca i32, align 4
  %9 = alloca i32, align 4
  %10 = alloca i32, align 4
  %11 = alloca i32, align 4
  %12 = alloca ptr, align 8
  %13 = alloca ptr, align 8
  %14 = alloca i32, align 4
  store ptr %0, ptr %7, align 8
  store i32 %1, ptr %8, align 4
  store i32 %2, ptr %9, align 4
  store i32 %3, ptr %10, align 4
  store i32 %4, ptr %11, align 4
  %15 = load i32, ptr %11, align 4
  store i32 %15, ptr %14, align 4
  %16 = load ptr, ptr %7, align 8
  %17 = load ptr, ptr %16, align 8
  %18 = getelementptr inbounds %struct.JNINativeInterface_, ptr %17, i32 0, i32 6
  %19 = load ptr, ptr %18, align 8
  %20 = load ptr, ptr %7, align 8
  %21 = call ptr %19(ptr noundef %20, ptr noundef @.str.74)
  store ptr %21, ptr %12, align 8
  br label %22

22:                                               ; preds = %5
  %23 = load ptr, ptr %12, align 8
  %24 = icmp eq ptr %23, null
  br i1 %24, label %25, label %26

25:                                               ; preds = %22
  store ptr null, ptr %6, align 8
  br label %67

26:                                               ; preds = %22
  br label %27

27:                                               ; preds = %26
  %28 = load ptr, ptr %12, align 8
  %29 = icmp eq ptr %28, null
  br i1 %29, label %30, label %32

30:                                               ; preds = %27
  %31 = load ptr, ptr %7, align 8
  call void @JNU_ThrowInternalError(ptr noundef %31, ptr noundef @.str.75)
  store ptr null, ptr %6, align 8
  br label %67

32:                                               ; preds = %27
  %33 = load ptr, ptr %7, align 8
  %34 = load ptr, ptr %33, align 8
  %35 = getelementptr inbounds %struct.JNINativeInterface_, ptr %34, i32 0, i32 33
  %36 = load ptr, ptr %35, align 8
  %37 = load ptr, ptr %7, align 8
  %38 = load ptr, ptr %12, align 8
  %39 = call ptr %36(ptr noundef %37, ptr noundef %38, ptr noundef @.str.26, ptr noundef @.str.27)
  store ptr %39, ptr %13, align 8
  br label %40

40:                                               ; preds = %32
  %41 = load ptr, ptr %13, align 8
  %42 = icmp eq ptr %41, null
  br i1 %42, label %43, label %44

43:                                               ; preds = %40
  store ptr null, ptr %6, align 8
  br label %67

44:                                               ; preds = %40
  br label %45

45:                                               ; preds = %44
  %46 = load ptr, ptr %13, align 8
  %47 = icmp eq ptr %46, null
  br i1 %47, label %48, label %50

48:                                               ; preds = %45
  %49 = load ptr, ptr %7, align 8
  call void @JNU_ThrowInternalError(ptr noundef %49, ptr noundef @.str.76)
  store ptr null, ptr %6, align 8
  br label %67

50:                                               ; preds = %45
  %51 = load i32, ptr %14, align 4
  %52 = icmp sle i32 %51, 0
  br i1 %52, label %53, label %54

53:                                               ; preds = %50
  store i32 0, ptr %14, align 4
  br label %54

54:                                               ; preds = %53, %50
  %55 = load ptr, ptr %7, align 8
  %56 = load ptr, ptr %55, align 8
  %57 = getelementptr inbounds %struct.JNINativeInterface_, ptr %56, i32 0, i32 28
  %58 = load ptr, ptr %57, align 8
  %59 = load ptr, ptr %7, align 8
  %60 = load ptr, ptr %12, align 8
  %61 = load ptr, ptr %13, align 8
  %62 = load i32, ptr %8, align 4
  %63 = load i32, ptr %9, align 4
  %64 = load i32, ptr %10, align 4
  %65 = load i32, ptr %14, align 4
  %66 = call ptr (ptr, ptr, ptr, ...) %58(ptr noundef %59, ptr noundef %60, ptr noundef %61, i32 noundef %62, i32 noundef %63, i32 noundef %64, i32 noundef %65)
  store ptr %66, ptr %6, align 8
  br label %67

67:                                               ; preds = %54, %48, %43, %30, %25
  %68 = load ptr, ptr %6, align 8
  ret ptr %68
}

; Function Attrs: nounwind uwtable
define ptr @Java_sun_awt_X11GraphicsDevice_getCurrentDisplayMode(ptr noundef %0, ptr noundef %1, i32 noundef %2) #0 {
  %4 = alloca ptr, align 8
  %5 = alloca ptr, align 8
  %6 = alloca i32, align 4
  %7 = alloca ptr, align 8
  %8 = alloca ptr, align 8
  %9 = alloca i16, align 2
  %10 = alloca i16, align 2
  %11 = alloca i16, align 2
  %12 = alloca ptr, align 8
  %13 = alloca i32, align 4
  %14 = alloca %struct.XRRScreenSize, align 4
  %15 = alloca ptr, align 8
  store ptr %0, ptr %4, align 8
  store ptr %1, ptr %5, align 8
  store i32 %2, ptr %6, align 4
  store ptr null, ptr %8, align 8
  br label %16

16:                                               ; preds = %3
  %17 = load ptr, ptr %4, align 8
  %18 = load ptr, ptr %17, align 8
  %19 = getelementptr inbounds %struct.JNINativeInterface_, ptr %18, i32 0, i32 228
  %20 = load ptr, ptr %19, align 8
  %21 = load ptr, ptr %4, align 8
  %22 = call zeroext i8 %20(ptr noundef %21)
  %23 = icmp ne i8 %22, 0
  br i1 %23, label %24, label %30

24:                                               ; preds = %16
  %25 = load ptr, ptr %4, align 8
  %26 = load ptr, ptr %25, align 8
  %27 = getelementptr inbounds %struct.JNINativeInterface_, ptr %26, i32 0, i32 17
  %28 = load ptr, ptr %27, align 8
  %29 = load ptr, ptr %4, align 8
  call void %28(ptr noundef %29)
  br label %30

30:                                               ; preds = %24, %16
  %31 = load ptr, ptr %4, align 8
  %32 = load ptr, ptr %31, align 8
  %33 = getelementptr inbounds %struct.JNINativeInterface_, ptr %32, i32 0, i32 141
  %34 = load ptr, ptr %33, align 8
  %35 = load ptr, ptr %4, align 8
  %36 = load ptr, ptr @tkClass, align 8
  %37 = load ptr, ptr @awtLockMID, align 8
  call void (ptr, ptr, ptr, ...) %34(ptr noundef %35, ptr noundef %36, ptr noundef %37)
  %38 = load ptr, ptr %4, align 8
  %39 = load ptr, ptr %38, align 8
  %40 = getelementptr inbounds %struct.JNINativeInterface_, ptr %39, i32 0, i32 228
  %41 = load ptr, ptr %40, align 8
  %42 = load ptr, ptr %4, align 8
  %43 = call zeroext i8 %41(ptr noundef %42)
  %44 = icmp ne i8 %43, 0
  br i1 %44, label %45, label %51

45:                                               ; preds = %30
  %46 = load ptr, ptr %4, align 8
  %47 = load ptr, ptr %46, align 8
  %48 = getelementptr inbounds %struct.JNINativeInterface_, ptr %47, i32 0, i32 17
  %49 = load ptr, ptr %48, align 8
  %50 = load ptr, ptr %4, align 8
  call void %49(ptr noundef %50)
  br label %51

51:                                               ; preds = %45, %30
  br label %52

52:                                               ; preds = %51
  %53 = load i32, ptr %6, align 4
  %54 = load ptr, ptr @awt_display, align 8
  %55 = getelementptr inbounds %struct.anon, ptr %54, i32 0, i32 34
  %56 = load i32, ptr %55, align 4
  %57 = icmp slt i32 %53, %56
  br i1 %57, label %58, label %106

58:                                               ; preds = %52
  %59 = load ptr, ptr @awt_XRRGetScreenInfo, align 8
  %60 = load ptr, ptr @awt_display, align 8
  %61 = load ptr, ptr @awt_display, align 8
  %62 = getelementptr inbounds %struct.anon, ptr %61, i32 0, i32 35
  %63 = load ptr, ptr %62, align 8
  %64 = load i32, ptr %6, align 4
  %65 = sext i32 %64 to i64
  %66 = getelementptr inbounds %struct.Screen, ptr %63, i64 %65
  %67 = getelementptr inbounds %struct.Screen, ptr %66, i32 0, i32 2
  %68 = load i64, ptr %67, align 8
  %69 = call ptr %59(ptr noundef %60, i64 noundef %68)
  store ptr %69, ptr %7, align 8
  %70 = load ptr, ptr %7, align 8
  %71 = icmp ne ptr %70, null
  br i1 %71, label %72, label %105

72:                                               ; preds = %58
  %73 = load ptr, ptr @awt_XRRConfigCurrentConfiguration, align 8
  %74 = load ptr, ptr %7, align 8
  %75 = call zeroext i16 %73(ptr noundef %74, ptr noundef %9)
  store i16 %75, ptr %11, align 2
  %76 = load ptr, ptr @awt_XRRConfigSizes, align 8
  %77 = load ptr, ptr %7, align 8
  %78 = call ptr %76(ptr noundef %77, ptr noundef %13)
  store ptr %78, ptr %12, align 8
  %79 = load ptr, ptr @awt_XRRConfigCurrentRate, align 8
  %80 = load ptr, ptr %7, align 8
  %81 = call signext i16 %79(ptr noundef %80)
  store i16 %81, ptr %10, align 2
  %82 = load ptr, ptr %12, align 8
  %83 = icmp ne ptr %82, null
  br i1 %83, label %84, label %102

84:                                               ; preds = %72
  %85 = load i16, ptr %11, align 2
  %86 = zext i16 %85 to i32
  %87 = load i32, ptr %13, align 4
  %88 = icmp slt i32 %86, %87
  br i1 %88, label %89, label %102

89:                                               ; preds = %84
  %90 = load ptr, ptr %12, align 8
  %91 = load i16, ptr %11, align 2
  %92 = zext i16 %91 to i64
  %93 = getelementptr inbounds %struct.XRRScreenSize, ptr %90, i64 %92
  call void @llvm.memcpy.p0.p0.i64(ptr align 4 %14, ptr align 4 %93, i64 16, i1 false)
  %94 = load ptr, ptr %4, align 8
  %95 = getelementptr inbounds %struct.XRRScreenSize, ptr %14, i32 0, i32 0
  %96 = load i32, ptr %95, align 4
  %97 = getelementptr inbounds %struct.XRRScreenSize, ptr %14, i32 0, i32 1
  %98 = load i32, ptr %97, align 4
  %99 = load i16, ptr %10, align 2
  %100 = sext i16 %99 to i32
  %101 = call ptr @X11GD_CreateDisplayMode(ptr noundef %94, i32 noundef %96, i32 noundef %98, i32 noundef -1, i32 noundef %100)
  store ptr %101, ptr %8, align 8
  br label %102

102:                                              ; preds = %89, %84, %72
  %103 = load ptr, ptr @awt_XRRFreeScreenConfigInfo, align 8
  %104 = load ptr, ptr %7, align 8
  call void %103(ptr noundef %104)
  br label %105

105:                                              ; preds = %102, %58
  br label %106

106:                                              ; preds = %105, %52
  br label %107

107:                                              ; preds = %106
  call void (...) @awt_output_flush()
  br label %108

108:                                              ; preds = %107
  %109 = load ptr, ptr %4, align 8
  %110 = load ptr, ptr %109, align 8
  %111 = getelementptr inbounds %struct.JNINativeInterface_, ptr %110, i32 0, i32 15
  %112 = load ptr, ptr %111, align 8
  %113 = load ptr, ptr %4, align 8
  %114 = call ptr %112(ptr noundef %113)
  store ptr %114, ptr %15, align 8
  %115 = icmp ne ptr %114, null
  br i1 %115, label %116, label %122

116:                                              ; preds = %108
  %117 = load ptr, ptr %4, align 8
  %118 = load ptr, ptr %117, align 8
  %119 = getelementptr inbounds %struct.JNINativeInterface_, ptr %118, i32 0, i32 17
  %120 = load ptr, ptr %119, align 8
  %121 = load ptr, ptr %4, align 8
  call void %120(ptr noundef %121)
  br label %122

122:                                              ; preds = %116, %108
  %123 = load ptr, ptr %4, align 8
  %124 = load ptr, ptr %123, align 8
  %125 = getelementptr inbounds %struct.JNINativeInterface_, ptr %124, i32 0, i32 141
  %126 = load ptr, ptr %125, align 8
  %127 = load ptr, ptr %4, align 8
  %128 = load ptr, ptr @tkClass, align 8
  %129 = load ptr, ptr @awtUnlockMID, align 8
  call void (ptr, ptr, ptr, ...) %126(ptr noundef %127, ptr noundef %128, ptr noundef %129)
  %130 = load ptr, ptr %4, align 8
  %131 = load ptr, ptr %130, align 8
  %132 = getelementptr inbounds %struct.JNINativeInterface_, ptr %131, i32 0, i32 228
  %133 = load ptr, ptr %132, align 8
  %134 = load ptr, ptr %4, align 8
  %135 = call zeroext i8 %133(ptr noundef %134)
  %136 = icmp ne i8 %135, 0
  br i1 %136, label %137, label %143

137:                                              ; preds = %122
  %138 = load ptr, ptr %4, align 8
  %139 = load ptr, ptr %138, align 8
  %140 = getelementptr inbounds %struct.JNINativeInterface_, ptr %139, i32 0, i32 17
  %141 = load ptr, ptr %140, align 8
  %142 = load ptr, ptr %4, align 8
  call void %141(ptr noundef %142)
  br label %143

143:                                              ; preds = %137, %122
  %144 = load ptr, ptr %15, align 8
  %145 = icmp ne ptr %144, null
  br i1 %145, label %146, label %154

146:                                              ; preds = %143
  %147 = load ptr, ptr %4, align 8
  %148 = load ptr, ptr %147, align 8
  %149 = getelementptr inbounds %struct.JNINativeInterface_, ptr %148, i32 0, i32 13
  %150 = load ptr, ptr %149, align 8
  %151 = load ptr, ptr %4, align 8
  %152 = load ptr, ptr %15, align 8
  %153 = call i32 %150(ptr noundef %151, ptr noundef %152)
  br label %154

154:                                              ; preds = %146, %143
  br label %155

155:                                              ; preds = %154
  br label %156

156:                                              ; preds = %155
  %157 = load ptr, ptr %8, align 8
  ret ptr %157
}