; Function Attrs: nounwind uwtable
define ptr @Java_sun_awt_X11GraphicsDevice_getCurrentDisplayMode(ptr noundef %0, ptr nocapture noundef readnone %1, i32 noundef %2) local_unnamed_addr #0 {
  %4 = alloca i16, align 2
  %5 = alloca i32, align 4
  %6 = load ptr, ptr %0, align 8
  %7 = getelementptr inbounds i8, ptr %6, i64 1824
  %8 = load ptr, ptr %7, align 8
  %9 = tail call zeroext i8 %8(ptr noundef nonnull %0) #17
  %.not = icmp eq i8 %9, 0
  br i1 %.not, label %14, label %10

10:                                               ; preds = %3
  %11 = load ptr, ptr %0, align 8
  %12 = getelementptr inbounds i8, ptr %11, i64 136
  %13 = load ptr, ptr %12, align 8
  tail call void %13(ptr noundef nonnull %0) #17
  br label %14

14:                                               ; preds = %10, %3
  %15 = load ptr, ptr %0, align 8
  %16 = getelementptr inbounds i8, ptr %15, i64 1128
  %17 = load ptr, ptr %16, align 8
  %18 = load ptr, ptr @tkClass, align 8
  %19 = load ptr, ptr @awtLockMID, align 8
  tail call void (ptr, ptr, ptr, ...) %17(ptr noundef nonnull %0, ptr noundef %18, ptr noundef %19) #17
  %20 = load ptr, ptr %0, align 8
  %21 = getelementptr inbounds i8, ptr %20, i64 1824
  %22 = load ptr, ptr %21, align 8
  %23 = tail call zeroext i8 %22(ptr noundef nonnull %0) #17
  %.not41 = icmp eq i8 %23, 0
  br i1 %.not41, label %28, label %24

24:                                               ; preds = %14
  %25 = load ptr, ptr %0, align 8
  %26 = getelementptr inbounds i8, ptr %25, i64 136
  %27 = load ptr, ptr %26, align 8
  tail call void %27(ptr noundef nonnull %0) #17
  br label %28

28:                                               ; preds = %14, %24
  %29 = load ptr, ptr @awt_display, align 8
  %30 = getelementptr inbounds i8, ptr %29, i64 228
  %31 = load i32, ptr %30, align 4
  %32 = icmp sgt i32 %31, %2
  br i1 %32, label %33, label %73

33:                                               ; preds = %28
  %34 = load ptr, ptr @awt_XRRGetScreenInfo, align 8
  %35 = getelementptr inbounds i8, ptr %29, i64 232
  %36 = load ptr, ptr %35, align 8
  %37 = sext i32 %2 to i64
  %38 = getelementptr inbounds %struct.Screen, ptr %36, i64 %37, i32 2
  %39 = load i64, ptr %38, align 8
  %40 = tail call ptr %34(ptr noundef nonnull %29, i64 noundef %39) #17
  %.not42 = icmp eq ptr %40, null
  br i1 %.not42, label %73, label %41

41:                                               ; preds = %33
  %42 = load ptr, ptr @awt_XRRConfigCurrentConfiguration, align 8
  %43 = call zeroext i16 %42(ptr noundef nonnull %40, ptr noundef nonnull %4) #17
  %44 = load ptr, ptr @awt_XRRConfigSizes, align 8
  %45 = call ptr %44(ptr noundef nonnull %40, ptr noundef nonnull %5) #17
  %46 = load ptr, ptr @awt_XRRConfigCurrentRate, align 8
  %47 = call signext i16 %46(ptr noundef nonnull %40) #17
  %.not43 = icmp eq ptr %45, null
  br i1 %.not43, label %X11GD_CreateDisplayMode.exit, label %48

48:                                               ; preds = %41
  %49 = zext i16 %43 to i32
  %50 = load i32, ptr %5, align 4
  %51 = icmp sgt i32 %50, %49
  br i1 %51, label %52, label %X11GD_CreateDisplayMode.exit

52:                                               ; preds = %48
  %53 = zext i16 %43 to i64
  %54 = getelementptr inbounds %struct.XRRScreenSize, ptr %45, i64 %53
  %.sroa.0.0.copyload = load i32, ptr %54, align 4
  %.sroa.2.0..sroa_idx = getelementptr inbounds i8, ptr %54, i64 4
  %.sroa.2.0.copyload = load i32, ptr %.sroa.2.0..sroa_idx, align 4
  %55 = load ptr, ptr %0, align 8
  %56 = getelementptr inbounds i8, ptr %55, i64 48
  %57 = load ptr, ptr %56, align 8
  %58 = call ptr %57(ptr noundef nonnull %0, ptr noundef nonnull @.str.74) #17
  %59 = icmp eq ptr %58, null
  br i1 %59, label %X11GD_CreateDisplayMode.exit, label %60

60:                                               ; preds = %52
  %61 = load ptr, ptr %0, align 8
  %62 = getelementptr inbounds i8, ptr %61, i64 264
  %63 = load ptr, ptr %62, align 8
  %64 = call ptr %63(ptr noundef nonnull %0, ptr noundef nonnull %58, ptr noundef nonnull @.str.26, ptr noundef nonnull @.str.27) #17
  %65 = icmp eq ptr %64, null
  br i1 %65, label %X11GD_CreateDisplayMode.exit, label %66

66:                                               ; preds = %60
  %67 = call i16 @llvm.smax.i16(i16 %47, i16 0)
  %spec.store.select.i = zext nneg i16 %67 to i32
  %68 = load ptr, ptr %0, align 8
  %69 = getelementptr inbounds i8, ptr %68, i64 224
  %70 = load ptr, ptr %69, align 8
  %71 = call ptr (ptr, ptr, ptr, ...) %70(ptr noundef nonnull %0, ptr noundef nonnull %58, ptr noundef nonnull %64, i32 noundef %.sroa.0.0.copyload, i32 noundef %.sroa.2.0.copyload, i32 noundef -1, i32 noundef %spec.store.select.i) #17
  br label %X11GD_CreateDisplayMode.exit

X11GD_CreateDisplayMode.exit:                     ; preds = %66, %60, %52, %48, %41
  %.0 = phi ptr [ null, %48 ], [ null, %41 ], [ %71, %66 ], [ null, %52 ], [ null, %60 ]
  %72 = load ptr, ptr @awt_XRRFreeScreenConfigInfo, align 8
  call void %72(ptr noundef nonnull %40) #17
  br label %73

73:                                               ; preds = %28, %X11GD_CreateDisplayMode.exit, %33
  %.1 = phi ptr [ %.0, %X11GD_CreateDisplayMode.exit ], [ null, %33 ], [ null, %28 ]
  call void (...) @awt_output_flush() #17
  %74 = load ptr, ptr %0, align 8
  %75 = getelementptr inbounds i8, ptr %74, i64 120
  %76 = load ptr, ptr %75, align 8
  %77 = call ptr %76(ptr noundef nonnull %0) #17
  %.not44 = icmp eq ptr %77, null
  br i1 %.not44, label %82, label %78

78:                                               ; preds = %73
  %79 = load ptr, ptr %0, align 8
  %80 = getelementptr inbounds i8, ptr %79, i64 136
  %81 = load ptr, ptr %80, align 8
  call void %81(ptr noundef nonnull %0) #17
  br label %82

82:                                               ; preds = %78, %73
  %83 = load ptr, ptr %0, align 8
  %84 = getelementptr inbounds i8, ptr %83, i64 1128
  %85 = load ptr, ptr %84, align 8
  %86 = load ptr, ptr @tkClass, align 8
  %87 = load ptr, ptr @awtUnlockMID, align 8
  call void (ptr, ptr, ptr, ...) %85(ptr noundef nonnull %0, ptr noundef %86, ptr noundef %87) #17
  %88 = load ptr, ptr %0, align 8
  %89 = getelementptr inbounds i8, ptr %88, i64 1824
  %90 = load ptr, ptr %89, align 8
  %91 = call zeroext i8 %90(ptr noundef nonnull %0) #17
  %.not45 = icmp eq i8 %91, 0
  br i1 %.not45, label %96, label %92

92:                                               ; preds = %82
  %93 = load ptr, ptr %0, align 8
  %94 = getelementptr inbounds i8, ptr %93, i64 136
  %95 = load ptr, ptr %94, align 8
  call void %95(ptr noundef nonnull %0) #17
  br label %96

96:                                               ; preds = %92, %82
  br i1 %.not44, label %102, label %97

97:                                               ; preds = %96
  %98 = load ptr, ptr %0, align 8
  %99 = getelementptr inbounds i8, ptr %98, i64 104
  %100 = load ptr, ptr %99, align 8
  %101 = call i32 %100(ptr noundef nonnull %0, ptr noundef nonnull %77) #17
  br label %102

102:                                              ; preds = %97, %96
  ret ptr %.1
}